#include <math.h>
#include <stdio.h>
#include <stdlib.h>
#include <string.h>

main()
{
int i,j,k,m=0,n;
scanf("%d",&n);
for(i=1;i<=n;i++)
{
if((i/10)==7||(i%10==7)||(i%7==0))
continue;
else
m=m+i*i;
}
printf("%d",m);
}